; Function Attrs: inlinehint nofree norecurse nosync nounwind memory(read, argmem: readwrite, inaccessiblemem: none) uwtable
define internal fastcc i32 @frwd_fetch(ptr noundef nonnull captures(none) %0) unnamed_addr #5 {
  %2 = getelementptr inbounds nuw i8, ptr %0, i64 16
  %3 = load i32, ptr %2, align 8, !tbaa !54
  %4 = icmp ult i32 %3, 32
  br i1 %4, label %5, label %._crit_edge

._crit_edge:                                      ; preds = %1
  %.phi.trans.insert = getelementptr inbounds nuw i8, ptr %0, i64 8
  %.pre = load i64, ptr %.phi.trans.insert, align 8, !tbaa !52
  br label %121

5:                                                ; preds = %1
  %6 = getelementptr inbounds nuw i8, ptr %0, i64 24
  %7 = load i32, ptr %6, align 8, !tbaa !92
  %8 = icmp sgt i32 %7, 3
  br i1 %8, label %9, label %13

9:                                                ; preds = %5
  %10 = load ptr, ptr %0, align 8, !tbaa !90
  %.val.i = load i32, ptr %10, align 4, !tbaa !51
  %11 = getelementptr inbounds nuw i8, ptr %10, i64 4
  store ptr %11, ptr %0, align 8, !tbaa !90
  %12 = add nsw i32 %7, -4
  store i32 %12, ptr %6, align 8, !tbaa !92
  br label %frwd_read.exit

13:                                               ; preds = %5
  %14 = icmp sgt i32 %7, 0
  %15 = getelementptr inbounds nuw i8, ptr %0, i64 28
  %16 = load i32, ptr %15, align 4, !tbaa !91
  %.not44.i = icmp ne i32 %16, 0
  %17 = sext i1 %.not44.i to i32
  br i1 %14, label %.lr.ph.i, label %frwd_read.exit

.lr.ph.i:                                         ; preds = %13
  %.promoted.i = load ptr, ptr %0, align 8, !tbaa !90
  br label %18

18:                                               ; preds = %18, %.lr.ph.i
  %19 = phi ptr [ %.promoted.i, %.lr.ph.i ], [ %21, %18 ]
  %.147.i = phi i32 [ %17, %.lr.ph.i ], [ %28, %18 ]
  %.04246.i = phi i32 [ 0, %.lr.ph.i ], [ %30, %18 ]
  %20 = phi i32 [ %7, %.lr.ph.i ], [ %29, %18 ]
  %21 = getelementptr inbounds nuw i8, ptr %19, i64 1
  store ptr %21, ptr %0, align 8, !tbaa !90
  %22 = load i8, ptr %19, align 1, !tbaa !44
  %23 = zext i8 %22 to i32
  %24 = shl i32 255, %.04246.i
  %25 = xor i32 %24, -1
  %26 = and i32 %.147.i, %25
  %27 = shl i32 %23, %.04246.i
  %28 = or i32 %27, %26
  %29 = add nsw i32 %20, -1
  store i32 %29, ptr %6, align 8, !tbaa !92
  %30 = add nuw nsw i32 %.04246.i, 8
  %31 = icmp samesign ugt i32 %20, 1
  br i1 %31, label %18, label %frwd_read.exit, !llvm.loop !95

frwd_read.exit:                                   ; preds = %18, %9, %13
  %32 = phi i32 [ %12, %9 ], [ %7, %13 ], [ 0, %18 ]
  %.0.i = phi i32 [ %.val.i, %9 ], [ %17, %13 ], [ %28, %18 ]
  %33 = getelementptr inbounds nuw i8, ptr %0, i64 20
  %34 = load i32, ptr %33, align 4, !tbaa !93
  %.not45.not.i = icmp eq i32 %34, 0
  %35 = select i1 %.not45.not.i, i32 8, i32 7
  %36 = and i32 %.0.i, 255
  %37 = icmp eq i32 %36, 255
  %38 = lshr i32 %.0.i, 8
  %39 = and i32 %38, 255
  %40 = shl nuw nsw i32 %39, %35
  %41 = select i1 %37, i32 7, i32 8
  %42 = add nuw nsw i32 %35, %41
  %43 = icmp eq i32 %39, 255
  %44 = lshr i32 %.0.i, 16
  %45 = and i32 %44, 255
  %46 = shl nuw nsw i32 %45, %42
  %47 = select i1 %43, i32 7, i32 8
  %48 = add nuw nsw i32 %42, %47
  %49 = icmp eq i32 %45, 255
  %50 = lshr i32 %.0.i, 24
  %51 = shl nuw i32 %50, %48
  %52 = or i32 %40, %46
  %53 = or i32 %52, %51
  %54 = or i32 %53, %36
  %55 = select i1 %49, i32 7, i32 8
  %56 = icmp eq i32 %50, 255
  %57 = zext i1 %56 to i32
  store i32 %57, ptr %33, align 4, !tbaa !93
  %58 = zext i32 %54 to i64
  %59 = zext nneg i32 %3 to i64
  %60 = shl nuw nsw i64 %58, %59
  %61 = getelementptr inbounds nuw i8, ptr %0, i64 8
  %62 = load i64, ptr %61, align 8, !tbaa !52
  %63 = or i64 %60, %62
  store i64 %63, ptr %61, align 8, !tbaa !52
  %64 = add nuw nsw i32 %55, %3
  %65 = add nuw nsw i32 %64, %48
  store i32 %65, ptr %2, align 8, !tbaa !54
  %66 = icmp samesign ult i32 %65, 32
  br i1 %66, label %67, label %121

67:                                               ; preds = %frwd_read.exit
  %68 = icmp sgt i32 %32, 3
  br i1 %68, label %69, label %73

69:                                               ; preds = %67
  %70 = load ptr, ptr %0, align 8, !tbaa !90
  %.val.i12 = load i32, ptr %70, align 4, !tbaa !51
  %71 = getelementptr inbounds nuw i8, ptr %70, i64 4
  store ptr %71, ptr %0, align 8, !tbaa !90
  %72 = add nsw i32 %32, -4
  store i32 %72, ptr %6, align 8, !tbaa !92
  br label %frwd_read.exit13

73:                                               ; preds = %67
  %74 = icmp sgt i32 %32, 0
  %75 = getelementptr inbounds nuw i8, ptr %0, i64 28
  %76 = load i32, ptr %75, align 4, !tbaa !91
  %.not44.i5 = icmp ne i32 %76, 0
  %77 = sext i1 %.not44.i5 to i32
  br i1 %74, label %.lr.ph.i8, label %frwd_read.exit13

.lr.ph.i8:                                        ; preds = %73
  %.promoted.i9 = load ptr, ptr %0, align 8, !tbaa !90
  br label %78

78:                                               ; preds = %78, %.lr.ph.i8
  %79 = phi ptr [ %.promoted.i9, %.lr.ph.i8 ], [ %81, %78 ]
  %.147.i10 = phi i32 [ %77, %.lr.ph.i8 ], [ %88, %78 ]
  %.04246.i11 = phi i32 [ 0, %.lr.ph.i8 ], [ %90, %78 ]
  %80 = phi i32 [ %32, %.lr.ph.i8 ], [ %89, %78 ]
  %81 = getelementptr inbounds nuw i8, ptr %79, i64 1
  store ptr %81, ptr %0, align 8, !tbaa !90
  %82 = load i8, ptr %79, align 1, !tbaa !44
  %83 = zext i8 %82 to i32
  %84 = shl i32 255, %.04246.i11
  %85 = xor i32 %84, -1
  %86 = and i32 %.147.i10, %85
  %87 = shl i32 %83, %.04246.i11
  %88 = or i32 %87, %86
  %89 = add nsw i32 %80, -1
  store i32 %89, ptr %6, align 8, !tbaa !92
  %90 = add nuw nsw i32 %.04246.i11, 8
  %91 = icmp samesign ugt i32 %80, 1
  br i1 %91, label %78, label %frwd_read.exit13, !llvm.loop !95

frwd_read.exit13:                                 ; preds = %78, %69, %73
  %.0.i6 = phi i32 [ %.val.i12, %69 ], [ %77, %73 ], [ %88, %78 ]
  %92 = select i1 %56, i32 7, i32 8
  %93 = and i32 %.0.i6, 255
  %94 = icmp eq i32 %93, 255
  %95 = lshr i32 %.0.i6, 8
  %96 = and i32 %95, 255
  %97 = shl nuw nsw i32 %96, %92
  %98 = select i1 %94, i32 7, i32 8
  %99 = add nuw nsw i32 %98, %92
  %100 = icmp eq i32 %96, 255
  %101 = lshr i32 %.0.i6, 16
  %102 = and i32 %101, 255
  %103 = shl nuw nsw i32 %102, %99
  %104 = select i1 %100, i32 7, i32 8
  %105 = add nuw nsw i32 %99, %104
  %106 = icmp eq i32 %102, 255
  %107 = lshr i32 %.0.i6, 24
  %108 = shl nuw i32 %107, %105
  %109 = or i32 %97, %103
  %110 = or i32 %109, %108
  %111 = or i32 %110, %93
  %112 = select i1 %106, i32 7, i32 8
  %113 = icmp eq i32 %107, 255
  %114 = zext i1 %113 to i32
  store i32 %114, ptr %33, align 4, !tbaa !93
  %115 = zext i32 %111 to i64
  %116 = zext nneg i32 %65 to i64
  %117 = shl nuw nsw i64 %115, %116
  %118 = or i64 %117, %63
  store i64 %118, ptr %61, align 8, !tbaa !52
  %119 = add nuw nsw i32 %112, %65
  %120 = add nuw nsw i32 %119, %105
  store i32 %120, ptr %2, align 8, !tbaa !54
  br label %121

121:                                              ; preds = %._crit_edge, %frwd_read.exit, %frwd_read.exit13
  %122 = phi i64 [ %.pre, %._crit_edge ], [ %63, %frwd_read.exit ], [ %118, %frwd_read.exit13 ]
  %123 = trunc i64 %122 to i32
  ret i32 %123
}